; Function Attrs: mustprogress uwtable
define dso_local void @_ZN5vcpkg10DotVersion9try_parseENS_10StringViewENS_13VersionSchemeE(ptr dead_on_unwind noalias writable sret(%"struct.vcpkg::ExpectedT") align 8 %0, ptr %1, i64 %2, i32 noundef %3) local_unnamed_addr #2 align 2 {
  %5 = alloca %"struct.vcpkg::LineInfo", align 8
  switch i32 %3, label %8 [
    i32 1, label %6
    i32 2, label %7
  ]

6:                                                ; preds = %4
  tail call void @_ZN5vcpkg10DotVersion17try_parse_relaxedENS_10StringViewE(ptr dead_on_unwind writable sret(%"struct.vcpkg::ExpectedT") align 8 %0, ptr %1, i64 %2)
  br label %10

7:                                                ; preds = %4
  tail call void @_ZN5vcpkg10DotVersion16try_parse_semverENS_10StringViewE(ptr dead_on_unwind writable sret(%"struct.vcpkg::ExpectedT") align 8 %0, ptr %1, i64 %2)
  br label %10

8:                                                ; preds = %4
  store i32 262, ptr %5, align 8
  %9 = getelementptr inbounds i8, ptr %5, i64 8
  store ptr @.str.3, ptr %9, align 8
  call void @_ZN5vcpkg6Checks11unreachableERKNS_8LineInfoE(ptr noundef nonnull align 8 dereferenceable(16) %5) #22
  unreachable

10:                                               ; preds = %7, %6
  ret void
}